target datalayout = "e-m:e-p270:32:32-p271:32:32-p272:64:64-i64:64-i128:128-f80:128-n8:16:32:64-S128"
target triple = "x86_64-pc-linux-gnu"

%struct.u_localized_print_string = type { ptr, i32, i32, %struct.ULocaleBundle }
%struct.ULocaleBundle = type { ptr, [5 x ptr], i8 }

; Function Attrs: mustprogress uwtable
define internal noundef i32 @_ZL15u_sprintf_writePvPKDsi(ptr noundef %0, ptr noundef %1, i32 noundef %2) #0 {
  %4 = alloca i32, align 4
  %5 = alloca ptr, align 8
  %6 = alloca ptr, align 8
  %7 = alloca i32, align 4
  %8 = alloca ptr, align 8
  %9 = alloca i32, align 4
  %10 = alloca i32, align 4
  store ptr %0, ptr %5, align 8, !tbaa !21
  store ptr %1, ptr %6, align 8, !tbaa !3
  store i32 %2, ptr %7, align 4, !tbaa !10
  call void @llvm.lifetime.start.p0(i64 8, ptr %8) #6
  %11 = load ptr, ptr %5, align 8, !tbaa !21
  store ptr %11, ptr %8, align 8, !tbaa !22
  %12 = load ptr, ptr %8, align 8, !tbaa !22
  %13 = getelementptr inbounds nuw %struct.u_localized_print_string, ptr %12, i32 0, i32 0
  %14 = load ptr, ptr %13, align 8, !tbaa !14
  %15 = icmp eq ptr %14, null
  br i1 %15, label %16, label %18

16:                                               ; preds = %3
  %17 = load i32, ptr %7, align 4, !tbaa !10
  store i32 %17, ptr %4, align 4
  store i32 1, ptr %9, align 4
  br label %53

18:                                               ; preds = %3
  call void @llvm.lifetime.start.p0(i64 4, ptr %10) #6
  %19 = load i32, ptr %7, align 4, !tbaa !10
  %20 = load ptr, ptr %8, align 8, !tbaa !22
  %21 = getelementptr inbounds nuw %struct.u_localized_print_string, ptr %20, i32 0, i32 1
  %22 = load i32, ptr %21, align 8, !tbaa !18
  %23 = icmp slt i32 %19, %22
  br i1 %23, label %24, label %26

24:                                               ; preds = %18
  %25 = load i32, ptr %7, align 4, !tbaa !10
  br label %30

26:                                               ; preds = %18
  %27 = load ptr, ptr %8, align 8, !tbaa !22
  %28 = getelementptr inbounds nuw %struct.u_localized_print_string, ptr %27, i32 0, i32 1
  %29 = load i32, ptr %28, align 8, !tbaa !18
  br label %30

30:                                               ; preds = %26, %24
  %31 = phi i32 [ %25, %24 ], [ %29, %26 ]
  store i32 %31, ptr %10, align 4, !tbaa !10
  %32 = load ptr, ptr %8, align 8, !tbaa !22
  %33 = getelementptr inbounds nuw %struct.u_localized_print_string, ptr %32, i32 0, i32 0
  %34 = load ptr, ptr %33, align 8, !tbaa !14
  %35 = load ptr, ptr %8, align 8, !tbaa !22
  %36 = getelementptr inbounds nuw %struct.u_localized_print_string, ptr %35, i32 0, i32 2
  %37 = load i32, ptr %36, align 4, !tbaa !17
  %38 = load ptr, ptr %8, align 8, !tbaa !22
  %39 = getelementptr inbounds nuw %struct.u_localized_print_string, ptr %38, i32 0, i32 1
  %40 = load i32, ptr %39, align 8, !tbaa !18
  %41 = sub nsw i32 %37, %40
  %42 = sext i32 %41 to i64
  %43 = getelementptr inbounds i16, ptr %34, i64 %42
  %44 = load ptr, ptr %6, align 8, !tbaa !3
  %45 = load i32, ptr %10, align 4, !tbaa !10
  %46 = call ptr @u_strncpy_77(ptr noundef %43, ptr noundef %44, i32 noundef %45)
  %47 = load i32, ptr %10, align 4, !tbaa !10
  %48 = load ptr, ptr %8, align 8, !tbaa !22
  %49 = getelementptr inbounds nuw %struct.u_localized_print_string, ptr %48, i32 0, i32 1
  %50 = load i32, ptr %49, align 8, !tbaa !18
  %51 = sub nsw i32 %50, %47
  store i32 %51, ptr %49, align 8, !tbaa !18
  %52 = load i32, ptr %10, align 4, !tbaa !10
  store i32 %52, ptr %4, align 4
  store i32 1, ptr %9, align 4
  call void @llvm.lifetime.end.p0(i64 4, ptr %10) #6
  br label %53

53:                                               ; preds = %30, %16
  call void @llvm.lifetime.end.p0(i64 8, ptr %8) #6
  %54 = load i32, ptr %4, align 4
  ret i32 %54
}