; Function Attrs: mustprogress uwtable
define internal noundef i32 @_ZL15u_sprintf_writePvPKDsi(ptr noundef captures(none) %0, ptr noundef %1, i32 noundef %2) #0 {
  %4 = load ptr, ptr %0, align 8, !tbaa !7
  %5 = icmp eq ptr %4, null
  br i1 %5, label %17, label %6

6:                                                ; preds = %3
  %7 = getelementptr inbounds nuw i8, ptr %0, i64 8
  %8 = load i32, ptr %7, align 8, !tbaa !14
  %. = tail call i32 @llvm.smin.i32(i32 %2, i32 %8)
  %9 = getelementptr inbounds nuw i8, ptr %0, i64 12
  %10 = load i32, ptr %9, align 4, !tbaa !13
  %11 = sub nsw i32 %10, %8
  %12 = sext i32 %11 to i64
  %13 = getelementptr inbounds i16, ptr %4, i64 %12
  %14 = tail call ptr @u_strncpy_77(ptr noundef nonnull %13, ptr noundef %1, i32 noundef %.)
  %15 = load i32, ptr %7, align 8, !tbaa !14
  %16 = sub nsw i32 %15, %.
  store i32 %16, ptr %7, align 8, !tbaa !14
  br label %17

17:                                               ; preds = %3, %6
  %.0 = phi i32 [ %., %6 ], [ %2, %3 ]
  ret i32 %.0
}